target datalayout = "e-m:e-p270:32:32-p271:32:32-p272:64:64-i64:64-i128:128-f80:128-n8:16:32:64-S128"
target triple = "x86_64-unknown-linux-gnu"

%"class.cvc5::internal::theory::arith::linear::RaiseConflict" = type { ptr }
%"class.cvc5::internal::theory::arith::linear::TempVarMalloc" = type { %"class.cvc5::internal::theory::arith::linear::ArithVarMalloc", ptr }
%"class.cvc5::internal::theory::arith::linear::ArithVarMalloc" = type { ptr }
%"class.cvc5::internal::theory::arith::linear::SumOfInfeasibilitiesSPD" = type { %"class.cvc5::internal::theory::arith::linear::SimplexDecisionProcedure", i32, i32, i32, i32, %"class.cvc5::internal::DenseMap.4", %"class.std::vector", %"class.cvc5::internal::DenseSet", %"class.cvc5::internal::DenseSet", %"class.std::vector", %"class.std::vector", %"class.std::unordered_map", %"class.cvc5::internal::theory::arith::linear::SumOfInfeasibilitiesSPD::Statistics" }
%"class.cvc5::internal::theory::arith::linear::SimplexDecisionProcedure" = type { %"class.cvc5::internal::EnvObj", i32, %"class.cvc5::internal::DenseSet", i32, ptr, ptr, ptr, ptr, i32, %"class.cvc5::internal::theory::arith::linear::RaiseConflict", ptr, %"class.cvc5::internal::theory::arith::linear::TempVarMalloc", i32, %"class.cvc5::internal::Rational", %"class.cvc5::internal::Rational", %"class.cvc5::internal::Rational", i64 }
%"class.cvc5::internal::EnvObj" = type { ptr, ptr }
%"class.cvc5::internal::Rational" = type { %class.__gmp_expr }
%class.__gmp_expr = type { [1 x %struct.__mpq_struct] }
%struct.__mpq_struct = type { %struct.__mpz_struct, %struct.__mpz_struct }
%struct.__mpz_struct = type { i32, i32, ptr }
%"class.cvc5::internal::DenseMap.4" = type { %"class.std::vector", %"class.std::vector", %"class.std::vector" }
%"class.cvc5::internal::DenseSet" = type { %"class.cvc5::internal::DenseMap" }
%"class.cvc5::internal::DenseMap" = type { %"class.std::vector", %"class.std::vector", %"class.std::vector.0" }
%"class.std::vector.0" = type { %"struct.std::_Bvector_base" }
%"struct.std::_Bvector_base" = type { %"struct.std::_Bvector_base<std::allocator<bool>>::_Bvector_impl" }
%"struct.std::_Bvector_base<std::allocator<bool>>::_Bvector_impl" = type { %"struct.std::_Bvector_base<std::allocator<bool>>::_Bvector_impl_data" }
%"struct.std::_Bvector_base<std::allocator<bool>>::_Bvector_impl_data" = type { %"struct.std::_Bit_iterator", %"struct.std::_Bit_iterator", ptr }
%"struct.std::_Bit_iterator" = type { %"struct.std::_Bit_iterator_base.base", [4 x i8] }
%"struct.std::_Bit_iterator_base.base" = type <{ ptr, i32 }>
%"class.std::vector" = type { %"struct.std::_Vector_base" }
%"struct.std::_Vector_base" = type { %"struct.std::_Vector_base<unsigned int, std::allocator<unsigned int>>::_Vector_impl" }
%"struct.std::_Vector_base<unsigned int, std::allocator<unsigned int>>::_Vector_impl" = type { %"struct.std::_Vector_base<unsigned int, std::allocator<unsigned int>>::_Vector_impl_data" }
%"struct.std::_Vector_base<unsigned int, std::allocator<unsigned int>>::_Vector_impl_data" = type { ptr, ptr, ptr }
%"class.std::unordered_map" = type { %"class.std::_Hashtable" }
%"class.std::_Hashtable" = type { ptr, i64, %"struct.std::__detail::_Hash_node_base", i64, %"struct.std::__detail::_Prime_rehash_policy", ptr }
%"struct.std::__detail::_Hash_node_base" = type { ptr }
%"struct.std::__detail::_Prime_rehash_policy" = type { float, i64 }
%"class.cvc5::internal::theory::arith::linear::SumOfInfeasibilitiesSPD::Statistics" = type { %"class.cvc5::internal::TimerStat", %"class.cvc5::internal::IntStat", %"class.cvc5::internal::IntStat", %"class.cvc5::internal::IntStat", %"class.cvc5::internal::IntStat", %"class.cvc5::internal::IntStat", %"class.cvc5::internal::IntStat", %"class.cvc5::internal::IntStat", %"class.cvc5::internal::TimerStat", %"class.cvc5::internal::TimerStat", %"class.cvc5::internal::TimerStat", %"class.cvc5::internal::TimerStat", %"class.cvc5::internal::ReferenceStat" }
%"class.cvc5::internal::IntStat" = type { %"class.cvc5::internal::ValueStat" }
%"class.cvc5::internal::ValueStat" = type { ptr }
%"class.cvc5::internal::TimerStat" = type { ptr }
%"class.cvc5::internal::ReferenceStat" = type { ptr }
%"class.cvc5::internal::theory::arith::linear::ErrorSet" = type { ptr, %"class.cvc5::internal::theory::arith::linear::ErrorInfoMap", i32, %"class.cvc5::internal::BinaryHeap", %"class.std::vector", %"class.std::vector", %"class.cvc5::internal::theory::arith::linear::TableauSizes", %"class.cvc5::internal::theory::arith::linear::BoundCountingLookup", %"class.cvc5::internal::theory::arith::linear::ErrorSet::Statistics" }
%"class.cvc5::internal::theory::arith::linear::ErrorInfoMap" = type { %"class.cvc5::internal::DenseMap.17" }
%"class.cvc5::internal::DenseMap.17" = type { %"class.std::vector", %"class.std::vector", %"class.std::vector.18" }
%"class.std::vector.18" = type { %"struct.std::_Vector_base.19" }
%"struct.std::_Vector_base.19" = type { %"struct.std::_Vector_base<cvc5::internal::theory::arith::linear::ErrorInformation, std::allocator<cvc5::internal::theory::arith::linear::ErrorInformation>>::_Vector_impl" }
%"struct.std::_Vector_base<cvc5::internal::theory::arith::linear::ErrorInformation, std::allocator<cvc5::internal::theory::arith::linear::ErrorInformation>>::_Vector_impl" = type { %"struct.std::_Vector_base<cvc5::internal::theory::arith::linear::ErrorInformation, std::allocator<cvc5::internal::theory::arith::linear::ErrorInformation>>::_Vector_impl_data" }
%"struct.std::_Vector_base<cvc5::internal::theory::arith::linear::ErrorInformation, std::allocator<cvc5::internal::theory::arith::linear::ErrorInformation>>::_Vector_impl_data" = type { ptr, ptr, ptr }
%"class.cvc5::internal::BinaryHeap" = type { %"class.std::vector.23", %"class.cvc5::internal::theory::arith::linear::ComparatorPivotRule" }
%"class.std::vector.23" = type { %"struct.std::_Vector_base.24" }
%"struct.std::_Vector_base.24" = type { %"struct.std::_Vector_base<cvc5::internal::BinaryHeap<unsigned int, cvc5::internal::theory::arith::linear::ComparatorPivotRule>::HElement *, std::allocator<cvc5::internal::BinaryHeap<unsigned int, cvc5::internal::theory::arith::linear::ComparatorPivotRule>::HElement *>>::_Vector_impl" }
%"struct.std::_Vector_base<cvc5::internal::BinaryHeap<unsigned int, cvc5::internal::theory::arith::linear::ComparatorPivotRule>::HElement *, std::allocator<cvc5::internal::BinaryHeap<unsigned int, cvc5::internal::theory::arith::linear::ComparatorPivotRule>::HElement *>>::_Vector_impl" = type { %"struct.std::_Vector_base<cvc5::internal::BinaryHeap<unsigned int, cvc5::internal::theory::arith::linear::ComparatorPivotRule>::HElement *, std::allocator<cvc5::internal::BinaryHeap<unsigned int, cvc5::internal::theory::arith::linear::ComparatorPivotRule>::HElement *>>::_Vector_impl_data" }
%"struct.std::_Vector_base<cvc5::internal::BinaryHeap<unsigned int, cvc5::internal::theory::arith::linear::ComparatorPivotRule>::HElement *, std::allocator<cvc5::internal::BinaryHeap<unsigned int, cvc5::internal::theory::arith::linear::ComparatorPivotRule>::HElement *>>::_Vector_impl_data" = type { ptr, ptr, ptr }
%"class.cvc5::internal::theory::arith::linear::ComparatorPivotRule" = type <{ ptr, i32, [4 x i8] }>
%"class.cvc5::internal::theory::arith::linear::TableauSizes" = type { ptr }
%"class.cvc5::internal::theory::arith::linear::BoundCountingLookup" = type { ptr }
%"class.cvc5::internal::theory::arith::linear::ErrorSet::Statistics" = type { %"class.cvc5::internal::IntStat", %"class.cvc5::internal::IntStat", %"class.cvc5::internal::IntStat", %"class.cvc5::internal::IntStat", %"class.cvc5::internal::IntStat", %"class.cvc5::internal::IntStat" }

; Function Attrs: mustprogress nounwind uwtable
define linkonce_odr hidden noundef i64 @_ZNKSt6vectorIjSaIjEE4sizeEv(ptr noundef nonnull align 8 dereferenceable(24) %this) #6 comdat align 2 {
entry:
  %this.addr = alloca ptr, align 8
  store ptr %this, ptr %this.addr, align 8
  %this1 = load ptr, ptr %this.addr, align 8
  %_M_impl = getelementptr inbounds %"struct.std::_Vector_base", ptr %this1, i32 0, i32 0
  %_M_finish = getelementptr inbounds %"struct.std::_Vector_base<unsigned int, std::allocator<unsigned int>>::_Vector_impl_data", ptr %_M_impl, i32 0, i32 1
  %0 = load ptr, ptr %_M_finish, align 8
  %_M_impl2 = getelementptr inbounds %"struct.std::_Vector_base", ptr %this1, i32 0, i32 0
  %_M_start = getelementptr inbounds %"struct.std::_Vector_base<unsigned int, std::allocator<unsigned int>>::_Vector_impl_data", ptr %_M_impl2, i32 0, i32 0
  %1 = load ptr, ptr %_M_start, align 8
  %sub.ptr.lhs.cast = ptrtoint ptr %0 to i64
  %sub.ptr.rhs.cast = ptrtoint ptr %1 to i64
  %sub.ptr.sub = sub i64 %sub.ptr.lhs.cast, %sub.ptr.rhs.cast
  %sub.ptr.div = sdiv exact i64 %sub.ptr.sub, 4
  ret i64 %sub.ptr.div
}

; Function Attrs: mustprogress nounwind uwtable
define linkonce_odr hidden noundef i64 @_ZNK4cvc58internal8DenseMapINS0_6theory5arith6linear16ErrorInformationEE4sizeEv(ptr noundef nonnull align 8 dereferenceable(72) %this) #6 comdat align 2 {
entry:
  %this.addr = alloca ptr, align 8
  store ptr %this, ptr %this.addr, align 8
  %this1 = load ptr, ptr %this.addr, align 8
  %d_list = getelementptr inbounds %"class.cvc5::internal::DenseMap.17", ptr %this1, i32 0, i32 0
  %call = call noundef i64 @_ZNKSt6vectorIjSaIjEE4sizeEv(ptr noundef nonnull align 8 dereferenceable(24) %d_list) #3
  ret i64 %call
}

; Function Attrs: mustprogress uwtable
define linkonce_odr hidden noundef i32 @_ZNK4cvc58internal6theory5arith6linear8ErrorSet9errorSizeEv(ptr noundef nonnull align 8 dereferenceable(240) %this) #4 comdat align 2 {
entry:
  %this.addr = alloca ptr, align 8
  store ptr %this, ptr %this.addr, align 8
  %this1 = load ptr, ptr %this.addr, align 8
  %d_errInfo = getelementptr inbounds %"class.cvc5::internal::theory::arith::linear::ErrorSet", ptr %this1, i32 0, i32 1
  %call = call noundef i64 @_ZNK4cvc58internal8DenseMapINS0_6theory5arith6linear16ErrorInformationEE4sizeEv(ptr noundef nonnull align 8 dereferenceable(72) %d_errInfo)
  %conv = trunc i64 %call to i32
  ret i32 %conv
}

; Function Attrs: mustprogress uwtable
define hidden void @_ZN4cvc58internal6theory5arith6linear23SumOfInfeasibilitiesSPD19adjustFocusAndErrorERKNS3_10UpdateInfoERKSt6vectorISt4pairIjiESaISA_EE(ptr noundef nonnull align 8 dereferenceable(800) %this, ptr noundef nonnull align 8 dereferenceable(204) %up, ptr noundef nonnull align 8 dereferenceable(24) %focusChanges) #4 align 2 {
entry:
  %this.addr = alloca ptr, align 8
  %up.addr = alloca ptr, align 8
  %focusChanges.addr = alloca ptr, align 8
  %newErrorSize = alloca i32, align 4
  store ptr %this, ptr %this.addr, align 8
  store ptr %up, ptr %up.addr, align 8
  store ptr %focusChanges, ptr %focusChanges.addr, align 8
  %this1 = load ptr, ptr %this.addr, align 8
  %d_errorSet = getelementptr inbounds %"class.cvc5::internal::theory::arith::linear::SimplexDecisionProcedure", ptr %this1, i32 0, i32 7
  %0 = load ptr, ptr %d_errorSet, align 8
  %call = call noundef i32 @_ZNK4cvc58internal6theory5arith6linear8ErrorSet9errorSizeEv(ptr noundef nonnull align 8 dereferenceable(240) %0)
  store i32 %call, ptr %newErrorSize, align 4
  %d_statistics = getelementptr inbounds %"class.cvc5::internal::theory::arith::linear::SumOfInfeasibilitiesSPD", ptr %this1, i32 0, i32 12
  %d_soiFocusConstructionTimer = getelementptr inbounds %"class.cvc5::internal::theory::arith::linear::SumOfInfeasibilitiesSPD::Statistics", ptr %d_statistics, i32 0, i32 9
  %d_soiVar = getelementptr inbounds %"class.cvc5::internal::theory::arith::linear::SumOfInfeasibilitiesSPD", ptr %this1, i32 0, i32 1
  %1 = load i32, ptr %d_soiVar, align 8
  %2 = load ptr, ptr %focusChanges.addr, align 8
  call void @_ZN4cvc58internal6theory5arith6linear24SimplexDecisionProcedure16adjustInfeasFuncERNS0_9TimerStatEjRKSt6vectorISt4pairIjiESaIS9_EE(ptr noundef nonnull align 8 dereferenceable(304) %this1, ptr noundef nonnull align 8 dereferenceable(8) %d_soiFocusConstructionTimer, i32 noundef %1, ptr noundef nonnull align 8 dereferenceable(24) %2)
  %3 = load i32, ptr %newErrorSize, align 4
  %d_errorSize = getelementptr inbounds %"class.cvc5::internal::theory::arith::linear::SimplexDecisionProcedure", ptr %this1, i32 0, i32 12
  store i32 %3, ptr %d_errorSize, align 8
  ret void
}