; Function Attrs: mustprogress uwtable
define hidden void @_ZN4cvc58internal6theory5arith6linear23SumOfInfeasibilitiesSPD19adjustFocusAndErrorERKNS3_10UpdateInfoERKSt6vectorISt4pairIjiESaISA_EE(ptr noundef nonnull align 8 dereferenceable(800) %this, ptr nocapture noundef nonnull readnone align 8 dereferenceable(204) %up, ptr noundef nonnull align 8 dereferenceable(24) %focusChanges) local_unnamed_addr #3 align 2 {
entry:
  %d_errorSet = getelementptr inbounds i8, ptr %this, i64 144
  %0 = load ptr, ptr %d_errorSet, align 8
  %d_errInfo.i = getelementptr inbounds i8, ptr %0, i64 8
  %_M_finish.i.i.i = getelementptr inbounds i8, ptr %0, i64 16
  %1 = load ptr, ptr %_M_finish.i.i.i, align 8
  %2 = load ptr, ptr %d_errInfo.i, align 8
  %sub.ptr.lhs.cast.i.i.i = ptrtoint ptr %1 to i64
  %sub.ptr.rhs.cast.i.i.i = ptrtoint ptr %2 to i64
  %sub.ptr.sub.i.i.i = sub i64 %sub.ptr.lhs.cast.i.i.i, %sub.ptr.rhs.cast.i.i.i
  %sub.ptr.div.i.i.i = lshr exact i64 %sub.ptr.sub.i.i.i, 2
  %conv.i = trunc i64 %sub.ptr.div.i.i.i to i32
  %d_soiFocusConstructionTimer = getelementptr inbounds i8, ptr %this, i64 768
  %d_soiVar = getelementptr inbounds i8, ptr %this, i64 304
  %3 = load i32, ptr %d_soiVar, align 8
  tail call void @_ZN4cvc58internal6theory5arith6linear24SimplexDecisionProcedure16adjustInfeasFuncERNS0_9TimerStatEjRKSt6vectorISt4pairIjiESaIS9_EE(ptr noundef nonnull align 8 dereferenceable(304) %this, ptr noundef nonnull align 8 dereferenceable(8) %d_soiFocusConstructionTimer, i32 noundef %3, ptr noundef nonnull align 8 dereferenceable(24) %focusChanges)
  %d_errorSize = getelementptr inbounds i8, ptr %this, i64 192
  store i32 %conv.i, ptr %d_errorSize, align 8
  ret void
}